target datalayout = "e-m:e-p270:32:32-p271:32:32-p272:64:64-i64:64-i128:128-f80:128-n8:16:32:64-S128"
target triple = "x86_64-pc-linux-gnu"

%"struct.Atomic::CmpxchgImpl" = type { i8 }
%"struct.Atomic::PlatformCmpxchg" = type { i8 }

@_ZN10MemTracker15_tracking_levelE = hidden global i32 0, align 4
@_ZL22g_final_report_did_run = internal global i8 0, align 1

; Function Attrs: mustprogress nounwind uwtable
define linkonce_odr hidden noundef zeroext i1 @_ZNK6Atomic15PlatformCmpxchgILm1EEclIbEET_PVS3_S3_S3_19atomic_memory_order(ptr noundef nonnull align 1 dereferenceable(1) %0, ptr noundef %1, i1 noundef zeroext %2, i1 noundef zeroext %3, i32 noundef %4) #1 comdat align 2 {
  %6 = alloca ptr, align 8
  %7 = alloca ptr, align 8
  %8 = alloca i8, align 1
  %9 = alloca i8, align 1
  %10 = alloca i32, align 4
  store ptr %0, ptr %6, align 8
  store ptr %1, ptr %7, align 8
  %11 = zext i1 %2 to i8
  store i8 %11, ptr %8, align 1
  %12 = zext i1 %3 to i8
  store i8 %12, ptr %9, align 1
  store i32 %4, ptr %10, align 4
  %13 = load i8, ptr %9, align 1
  %14 = trunc i8 %13 to i1
  %15 = load i8, ptr %8, align 1
  %16 = trunc i8 %15 to i1
  %17 = load ptr, ptr %7, align 8
  %18 = call i8 asm sideeffect "lock cmpxchgb $1,($3)", "={ax},q,{ax},r,~{cc},~{memory},~{dirflag},~{fpsr},~{flags}"(i1 %14, i1 %16, ptr %17) #2, !srcloc !45
  store i8 %18, ptr %9, align 1
  %19 = load i8, ptr %9, align 1
  %20 = trunc i8 %19 to i1
  ret i1 %20
}

; Function Attrs: mustprogress nounwind uwtable
define linkonce_odr hidden noundef zeroext i1 @_ZNK6Atomic11CmpxchgImplIbbbvEclEPVbbb19atomic_memory_order(ptr noundef nonnull align 1 dereferenceable(1) %0, ptr noundef %1, i1 noundef zeroext %2, i1 noundef zeroext %3, i32 noundef %4) #1 comdat align 2 {
  %6 = alloca ptr, align 8
  %7 = alloca ptr, align 8
  %8 = alloca i8, align 1
  %9 = alloca i8, align 1
  %10 = alloca i32, align 4
  %11 = alloca %"struct.Atomic::PlatformCmpxchg", align 1
  store ptr %0, ptr %6, align 8
  store ptr %1, ptr %7, align 8
  %12 = zext i1 %2 to i8
  store i8 %12, ptr %8, align 1
  %13 = zext i1 %3 to i8
  store i8 %13, ptr %9, align 1
  store i32 %4, ptr %10, align 4
  %14 = load ptr, ptr %7, align 8
  %15 = load i8, ptr %8, align 1
  %16 = trunc i8 %15 to i1
  %17 = load i8, ptr %9, align 1
  %18 = trunc i8 %17 to i1
  %19 = load i32, ptr %10, align 4
  %20 = call noundef zeroext i1 @_ZNK6Atomic15PlatformCmpxchgILm1EEclIbEET_PVS3_S3_S3_19atomic_memory_order(ptr noundef nonnull align 1 dereferenceable(1) %11, ptr noundef %14, i1 noundef zeroext %16, i1 noundef zeroext %18, i32 noundef %19)
  ret i1 %20
}

; Function Attrs: mustprogress nounwind uwtable
define linkonce_odr hidden noundef i32 @_ZN10MemTracker14tracking_levelEv() #1 comdat align 2 {
  %1 = load i32, ptr @_ZN10MemTracker15_tracking_levelE, align 4
  ret i32 %1
}

; Function Attrs: mustprogress nounwind uwtable
define linkonce_odr hidden noundef zeroext i1 @_ZN6Atomic7cmpxchgIbbbEET_PVS1_T0_T1_19atomic_memory_order(ptr noundef %0, i1 noundef zeroext %1, i1 noundef zeroext %2, i32 noundef %3) #1 comdat align 2 {
  %5 = alloca ptr, align 8
  %6 = alloca i8, align 1
  %7 = alloca i8, align 1
  %8 = alloca i32, align 4
  %9 = alloca %"struct.Atomic::CmpxchgImpl", align 1
  store ptr %0, ptr %5, align 8
  %10 = zext i1 %1 to i8
  store i8 %10, ptr %6, align 1
  %11 = zext i1 %2 to i8
  store i8 %11, ptr %7, align 1
  store i32 %3, ptr %8, align 4
  %12 = load ptr, ptr %5, align 8
  %13 = load i8, ptr %6, align 1
  %14 = trunc i8 %13 to i1
  %15 = load i8, ptr %7, align 1
  %16 = trunc i8 %15 to i1
  %17 = load i32, ptr %8, align 4
  %18 = call noundef zeroext i1 @_ZNK6Atomic11CmpxchgImplIbbbvEclEPVbbb19atomic_memory_order(ptr noundef nonnull align 1 dereferenceable(1) %9, ptr noundef %12, i1 noundef zeroext %14, i1 noundef zeroext %16, i32 noundef %17)
  ret i1 %18
}

; Function Attrs: mustprogress nounwind uwtable
define linkonce_odr hidden noundef zeroext i1 @_ZN10MemTracker7enabledEv() #1 comdat align 2 {
  %1 = load i32, ptr @_ZN10MemTracker15_tracking_levelE, align 4
  %2 = icmp sgt i32 %1, 1
  ret i1 %2
}

; Function Attrs: mustprogress nounwind uwtable
define hidden void @_ZN10MemTracker12final_reportEP12outputStream(ptr noundef %0) #1 align 2 {
  %2 = alloca ptr, align 8
  store ptr %0, ptr %2, align 8
  %3 = call noundef zeroext i1 @_ZN10MemTracker7enabledEv()
  br i1 %3, label %4, label %12

4:                                                ; preds = %1
  %5 = call noundef zeroext i1 @_ZN6Atomic7cmpxchgIbbbEET_PVS1_T0_T1_19atomic_memory_order(ptr noundef @_ZL22g_final_report_did_run, i1 noundef zeroext false, i1 noundef zeroext true, i32 noundef 8)
  %6 = zext i1 %5 to i32
  %7 = icmp eq i32 %6, 0
  br i1 %7, label %8, label %12

8:                                                ; preds = %4
  %9 = call noundef i32 @_ZN10MemTracker14tracking_levelEv()
  %10 = icmp eq i32 %9, 2
  %11 = load ptr, ptr %2, align 8
  call void @_ZN10MemTracker6reportEbP12outputStreamm(i1 noundef zeroext %10, ptr noundef %11, i64 noundef 1)
  br label %12

12:                                               ; preds = %8, %4, %1
  ret void
}