; Function Attrs: mustprogress nounwind uwtable
define hidden void @_ZN10MemTracker12final_reportEP12outputStream(ptr noundef %0) local_unnamed_addr #0 align 2 {
  %2 = load i32, ptr @_ZN10MemTracker15_tracking_levelE, align 4
  %3 = icmp sgt i32 %2, 1
  br i1 %3, label %4, label %10

4:                                                ; preds = %1
  %5 = tail call i8 asm sideeffect "lock cmpxchgb $1,($3)", "={ax},q,{ax},r,~{cc},~{memory},~{dirflag},~{fpsr},~{flags}"(i1 true, i1 false, ptr nonnull @_ZL22g_final_report_did_run) #11, !srcloc !13
  %6 = trunc i8 %5 to i1
  br i1 %6, label %10, label %7

7:                                                ; preds = %4
  %8 = load i32, ptr @_ZN10MemTracker15_tracking_levelE, align 4
  %9 = icmp eq i32 %8, 2
  tail call void @_ZN10MemTracker6reportEbP12outputStreamm(i1 noundef zeroext %9, ptr noundef %0, i64 noundef 1)
  br label %10

10:                                               ; preds = %7, %4, %1
  ret void
}